target datalayout = "e-m:e-p270:32:32-p271:32:32-p272:64:64-i64:64-i128:128-f80:128-n8:16:32:64-S128"
target triple = "x86_64-pc-linux-gnu"

%"class.(anonymous namespace)::DwarfEHPrepareLegacyPass" = type { %"class.llvm::FunctionPass.base", i32 }
%"class.llvm::FunctionPass.base" = type { %"class.llvm::Pass.base" }
%"class.llvm::Pass.base" = type <{ ptr, ptr, ptr, i32 }>
%"class.llvm::Pass" = type <{ ptr, ptr, ptr, i32, [4 x i8] }>

@_ZN12_GLOBAL__N_124DwarfEHPrepareLegacyPass2IDE = internal global i8 0, align 1
@_ZTVN4llvm12FunctionPassE = external unnamed_addr constant { [20 x ptr] }, align 8
@_ZTVN4llvm4PassE = external unnamed_addr constant { [19 x ptr] }, align 8

; Function Attrs: mustprogress nounwind uwtable
define linkonce_odr hidden void @_ZN4llvm4PassC2ENS_8PassKindERc(ptr noundef nonnull align 8 dereferenceable(28) %0, i32 noundef %1, ptr noundef nonnull align 1 dereferenceable(1) %2) unnamed_addr #1 comdat align 2 {
  %4 = alloca ptr, align 8
  %5 = alloca i32, align 4
  %6 = alloca ptr, align 8
  store ptr %0, ptr %4, align 8
  store i32 %1, ptr %5, align 4
  store ptr %2, ptr %6, align 8
  %7 = load ptr, ptr %4, align 8
  store ptr getelementptr inbounds inrange(-16, 136) ({ [19 x ptr] }, ptr @_ZTVN4llvm4PassE, i32 0, i32 0, i32 2), ptr %7, align 8
  %8 = getelementptr inbounds nuw %"class.llvm::Pass", ptr %7, i32 0, i32 1
  store ptr null, ptr %8, align 8
  %9 = getelementptr inbounds nuw %"class.llvm::Pass", ptr %7, i32 0, i32 2
  %10 = load ptr, ptr %6, align 8
  store ptr %10, ptr %9, align 8
  %11 = getelementptr inbounds nuw %"class.llvm::Pass", ptr %7, i32 0, i32 3
  %12 = load i32, ptr %5, align 4
  store i32 %12, ptr %11, align 8
  ret void
}

; Function Attrs: mustprogress nounwind uwtable
define linkonce_odr hidden void @_ZN4llvm12FunctionPassC2ERc(ptr noundef nonnull align 8 dereferenceable(28) %0, ptr noundef nonnull align 1 dereferenceable(1) %1) unnamed_addr #1 comdat align 2 {
  %3 = alloca ptr, align 8
  %4 = alloca ptr, align 8
  store ptr %0, ptr %3, align 8
  store ptr %1, ptr %4, align 8
  %5 = load ptr, ptr %3, align 8
  %6 = load ptr, ptr %4, align 8
  call void @_ZN4llvm4PassC2ENS_8PassKindERc(ptr noundef nonnull align 8 dereferenceable(28) %5, i32 noundef 2, ptr noundef nonnull align 1 dereferenceable(1) %6)
  store ptr getelementptr inbounds inrange(-16, 144) ({ [20 x ptr] }, ptr @_ZTVN4llvm12FunctionPassE, i32 0, i32 0, i32 2), ptr %5, align 8
  ret void
}

; Function Attrs: mustprogress nounwind uwtable
define internal void @_ZN12_GLOBAL__N_124DwarfEHPrepareLegacyPassC2EN4llvm15CodeGenOptLevelE(ptr noundef nonnull align 8 dereferenceable(32) %0, i32 noundef %1) unnamed_addr #1 align 2 {
  %3 = alloca ptr, align 8
  %4 = alloca i32, align 4
  store ptr %0, ptr %3, align 8
  store i32 %1, ptr %4, align 4
  %5 = load ptr, ptr %3, align 8
  call void @_ZN4llvm12FunctionPassC2ERc(ptr noundef nonnull align 8 dereferenceable(28) %5, ptr noundef nonnull align 1 dereferenceable(1) @_ZN12_GLOBAL__N_124DwarfEHPrepareLegacyPass2IDE)
  store ptr getelementptr inbounds inrange(-16, 144) ({ [20 x ptr] }, ptr @_ZTVN12_GLOBAL__N_124DwarfEHPrepareLegacyPassE, i32 0, i32 0, i32 2), ptr %5, align 8
  %6 = getelementptr inbounds nuw %"class.(anonymous namespace)::DwarfEHPrepareLegacyPass", ptr %5, i32 0, i32 1
  %7 = load i32, ptr %4, align 4
  store i32 %7, ptr %6, align 4
  ret void
}

; Function Attrs: mustprogress nounwind uwtable
define dso_local noundef ptr @_ZN4llvm17createDwarfEHPassENS_15CodeGenOptLevelE(i32 noundef %0) #1 {
  %2 = alloca i32, align 4
  store i32 %0, ptr %2, align 4
  %3 = call noalias noundef nonnull ptr @_Znwm(i64 noundef 32) #12
  %4 = load i32, ptr %2, align 4
  call void @_ZN12_GLOBAL__N_124DwarfEHPrepareLegacyPassC2EN4llvm15CodeGenOptLevelE(ptr noundef nonnull align 8 dereferenceable(32) %3, i32 noundef %4)
  ret ptr %3
}