; Function Attrs: mustprogress nounwind uwtable
define dso_local noalias noundef nonnull ptr @_ZN4llvm17createDwarfEHPassENS_15CodeGenOptLevelE(i32 noundef %0) local_unnamed_addr #0 {
  %2 = tail call noalias noundef nonnull dereferenceable(32) ptr @_Znwm(i64 noundef 32) #17
  %3 = getelementptr inbounds nuw i8, ptr %2, i64 8
  store ptr null, ptr %3, align 8
  %4 = getelementptr inbounds nuw i8, ptr %2, i64 16
  store ptr @_ZN12_GLOBAL__N_124DwarfEHPrepareLegacyPass2IDE, ptr %4, align 8
  %5 = getelementptr inbounds nuw i8, ptr %2, i64 24
  store i32 2, ptr %5, align 8
  store ptr getelementptr inbounds inrange(-16, 144) (i8, ptr @_ZTVN12_GLOBAL__N_124DwarfEHPrepareLegacyPassE, i64 16), ptr %2, align 8
  %6 = getelementptr inbounds nuw i8, ptr %2, i64 28
  store i32 %0, ptr %6, align 4
  ret ptr %2
}